(lp1
S'House M.D.'
p2
aS'Scrubs'
p3
aS'Breaking Bad'
p4
aS'Game of Thrones'
p5
aS'Dexter'
p6
aS'How I Met Your Mother'
p7
aS'Star Wars: The Clone Wars'
p8
aS'The IT Crowd'
p9
aS'Family Guy'
p10
aS'FlashForward'
p11
aS'The Big Bang Theory'
p12
a.